; ModuleID = '49/326.cpp'
source_filename = "49/326.cpp"
target datalayout = "e-m:e-p270:32:32-p271:32:32-p272:64:64-i64:64-f80:128-n8:16:32:64-S128"
target triple = "x86_64-pc-linux-gnu"

%"class.std::ios_base::Init" = type { i8 }
%"class.std::basic_istream" = type { i32 (...)**, i64, %"class.std::basic_ios" }
%"class.std::basic_ios" = type { %"class.std::ios_base", %"class.std::basic_ostream"*, i8, i8, %"class.std::basic_streambuf"*, %"class.std::ctype"*, %"class.std::num_put"*, %"class.std::num_get"* }
%"class.std::ios_base" = type { i32 (...)**, i64, i64, i32, i32, i32, %"struct.std::ios_base::_Callback_list"*, %"struct.std::ios_base::_Words", [8 x %"struct.std::ios_base::_Words"], i32, %"struct.std::ios_base::_Words"*, %"class.std::locale" }
%"struct.std::ios_base::_Callback_list" = type { %"struct.std::ios_base::_Callback_list"*, void (i32, %"class.std::ios_base"*, i32)*, i32, i32 }
%"struct.std::ios_base::_Words" = type { i8*, i64 }
%"class.std::locale" = type { %"class.std::locale::_Impl"* }
%"class.std::locale::_Impl" = type { i32, %"class.std::locale::facet"**, i64, %"class.std::locale::facet"**, i8** }
%"class.std::locale::facet" = type <{ i32 (...)**, i32, [4 x i8] }>
%"class.std::basic_ostream" = type { i32 (...)**, %"class.std::basic_ios" }
%"class.std::basic_streambuf" = type { i32 (...)**, i8*, i8*, i8*, i8*, i8*, i8*, %"class.std::locale" }
%"class.std::ctype" = type <{ %"class.std::locale::facet.base", [4 x i8], %struct.__locale_struct*, i8, [7 x i8], i32*, i32*, i16*, i8, [256 x i8], [256 x i8], i8, [6 x i8] }>
%"class.std::locale::facet.base" = type <{ i32 (...)**, i32 }>
%struct.__locale_struct = type { [13 x %struct.__locale_data*], i16*, i32*, i32*, [13 x i8*] }
%struct.__locale_data = type opaque
%"class.std::num_put" = type { %"class.std::locale::facet.base", [4 x i8] }
%"class.std::num_get" = type { %"class.std::locale::facet.base", [4 x i8] }

@_ZStL8__ioinit = internal global %"class.std::ios_base::Init" zeroinitializer, align 1
@__dso_handle = external hidden global i8
@_ZSt3cin = external dso_local global %"class.std::basic_istream", align 8
@_ZSt4cout = external dso_local global %"class.std::basic_ostream", align 8
@llvm.global_ctors = appending global [1 x { i32, void ()*, i8* }] [{ i32, void ()*, i8* } { i32 65535, void ()* @_GLOBAL__sub_I_326.cpp, i8* null }]

; Function Attrs: noinline uwtable
define internal void @__cxx_global_var_init() #0 section ".text.startup" {
  call void @_ZNSt8ios_base4InitC1Ev(%"class.std::ios_base::Init"* @_ZStL8__ioinit)
  %1 = call i32 @__cxa_atexit(void (i8*)* bitcast (void (%"class.std::ios_base::Init"*)* @_ZNSt8ios_base4InitD1Ev to void (i8*)*), i8* getelementptr inbounds (%"class.std::ios_base::Init", %"class.std::ios_base::Init"* @_ZStL8__ioinit, i32 0, i32 0), i8* @__dso_handle) #3
  ret void
}

declare dso_local void @_ZNSt8ios_base4InitC1Ev(%"class.std::ios_base::Init"*) unnamed_addr #1

; Function Attrs: nounwind
declare dso_local void @_ZNSt8ios_base4InitD1Ev(%"class.std::ios_base::Init"*) unnamed_addr #2

; Function Attrs: nounwind
declare dso_local i32 @__cxa_atexit(void (i8*)*, i8*, i8*) #3

; Function Attrs: noinline norecurse uwtable
define dso_local i32 @main() #4 {
  %1 = alloca i32, align 4
  %2 = alloca [501 x i8], align 16
  %3 = alloca i8*, align 8
  %4 = alloca i8*, align 8
  %5 = alloca i8*, align 8
  %6 = alloca i32, align 4
  %7 = alloca i32, align 4
  %8 = alloca i32, align 4
  store i32 0, i32* %1, align 4
  %9 = getelementptr inbounds [501 x i8], [501 x i8]* %2, i64 0, i64 0
  %10 = call dereferenceable(280) %"class.std::basic_istream"* @_ZStrsIcSt11char_traitsIcEERSt13basic_istreamIT_T0_ES6_PS3_(%"class.std::basic_istream"* dereferenceable(280) @_ZSt3cin, i8* %9)
  store i32 1, i32* %8, align 4
  %11 = getelementptr inbounds [501 x i8], [501 x i8]* %2, i64 0, i64 0
  %12 = call i64 @strlen(i8* %11) #6
  %13 = trunc i64 %12 to i32
  store i32 %13, i32* %6, align 4
  store i32 1, i32* %7, align 4
  br label %14

14:                                               ; preds = %83, %0
  %15 = load i32, i32* %7, align 4
  %16 = load i32, i32* %6, align 4
  %17 = icmp slt i32 %15, %16
  br i1 %17, label %18, label %86

18:                                               ; preds = %14
  %19 = getelementptr inbounds [501 x i8], [501 x i8]* %2, i64 0, i64 0
  %20 = load i32, i32* %7, align 4
  %21 = sext i32 %20 to i64
  %22 = getelementptr inbounds i8, i8* %19, i64 %21
  store i8* %22, i8** %3, align 8
  br label %23

23:                                               ; preds = %79, %18
  %24 = load i8*, i8** %3, align 8
  %25 = getelementptr inbounds [501 x i8], [501 x i8]* %2, i64 0, i64 0
  %26 = load i32, i32* %6, align 4
  %27 = sext i32 %26 to i64
  %28 = getelementptr inbounds i8, i8* %25, i64 %27
  %29 = icmp ult i8* %24, %28
  br i1 %29, label %30, label %82

30:                                               ; preds = %23
  store i32 1, i32* %8, align 4
  %31 = load i8*, i8** %3, align 8
  %32 = load i32, i32* %7, align 4
  %33 = sext i32 %32 to i64
  %34 = sub i64 0, %33
  %35 = getelementptr inbounds i8, i8* %31, i64 %34
  store i8* %35, i8** %4, align 8
  %36 = load i8*, i8** %3, align 8
  store i8* %36, i8** %5, align 8
  br label %37

37:                                               ; preds = %51, %30
  %38 = load i8*, i8** %4, align 8
  %39 = load i8*, i8** %5, align 8
  %40 = icmp ule i8* %38, %39
  br i1 %40, label %41, label %56

41:                                               ; preds = %37
  %42 = load i8*, i8** %4, align 8
  %43 = load i8, i8* %42, align 1
  %44 = sext i8 %43 to i32
  %45 = load i8*, i8** %5, align 8
  %46 = load i8, i8* %45, align 1
  %47 = sext i8 %46 to i32
  %48 = icmp ne i32 %44, %47
  br i1 %48, label %49, label %50

49:                                               ; preds = %41
  store i32 0, i32* %8, align 4
  br label %56

50:                                               ; preds = %41
  br label %51

51:                                               ; preds = %50
  %52 = load i8*, i8** %4, align 8
  %53 = getelementptr inbounds i8, i8* %52, i32 1
  store i8* %53, i8** %4, align 8
  %54 = load i8*, i8** %5, align 8
  %55 = getelementptr inbounds i8, i8* %54, i32 -1
  store i8* %55, i8** %5, align 8
  br label %37

56:                                               ; preds = %49, %37
  %57 = load i32, i32* %8, align 4
  %58 = icmp ne i32 %57, 0
  br i1 %58, label %59, label %78

59:                                               ; preds = %56
  %60 = load i8*, i8** %3, align 8
  %61 = load i32, i32* %7, align 4
  %62 = sext i32 %61 to i64
  %63 = sub i64 0, %62
  %64 = getelementptr inbounds i8, i8* %60, i64 %63
  store i8* %64, i8** %4, align 8
  br label %65

65:                                               ; preds = %73, %59
  %66 = load i8*, i8** %4, align 8
  %67 = load i8*, i8** %3, align 8
  %68 = icmp ule i8* %66, %67
  br i1 %68, label %69, label %76

69:                                               ; preds = %65
  %70 = load i8*, i8** %4, align 8
  %71 = load i8, i8* %70, align 1
  %72 = call dereferenceable(272) %"class.std::basic_ostream"* @_ZStlsISt11char_traitsIcEERSt13basic_ostreamIcT_ES5_c(%"class.std::basic_ostream"* dereferenceable(272) @_ZSt4cout, i8 signext %71)
  br label %73

73:                                               ; preds = %69
  %74 = load i8*, i8** %4, align 8
  %75 = getelementptr inbounds i8, i8* %74, i32 1
  store i8* %75, i8** %4, align 8
  br label %65

76:                                               ; preds = %65
  %77 = call dereferenceable(272) %"class.std::basic_ostream"* @_ZNSolsEPFRSoS_E(%"class.std::basic_ostream"* @_ZSt4cout, %"class.std::basic_ostream"* (%"class.std::basic_ostream"*)* @_ZSt4endlIcSt11char_traitsIcEERSt13basic_ostreamIT_T0_ES6_)
  br label %78

78:                                               ; preds = %76, %56
  br label %79

79:                                               ; preds = %78
  %80 = load i8*, i8** %3, align 8
  %81 = getelementptr inbounds i8, i8* %80, i32 1
  store i8* %81, i8** %3, align 8
  br label %23

82:                                               ; preds = %23
  br label %83

83:                                               ; preds = %82
  %84 = load i32, i32* %7, align 4
  %85 = add nsw i32 %84, 1
  store i32 %85, i32* %7, align 4
  br label %14

86:                                               ; preds = %14
  ret i32 0
}

declare dso_local dereferenceable(280) %"class.std::basic_istream"* @_ZStrsIcSt11char_traitsIcEERSt13basic_istreamIT_T0_ES6_PS3_(%"class.std::basic_istream"* dereferenceable(280), i8*) #1

; Function Attrs: nounwind readonly
declare dso_local i64 @strlen(i8*) #5

declare dso_local dereferenceable(272) %"class.std::basic_ostream"* @_ZStlsISt11char_traitsIcEERSt13basic_ostreamIcT_ES5_c(%"class.std::basic_ostream"* dereferenceable(272), i8 signext) #1

declare dso_local dereferenceable(272) %"class.std::basic_ostream"* @_ZNSolsEPFRSoS_E(%"class.std::basic_ostream"*, %"class.std::basic_ostream"* (%"class.std::basic_ostream"*)*) #1

declare dso_local dereferenceable(272) %"class.std::basic_ostream"* @_ZSt4endlIcSt11char_traitsIcEERSt13basic_ostreamIT_T0_ES6_(%"class.std::basic_ostream"* dereferenceable(272)) #1

; Function Attrs: noinline uwtable
define internal void @_GLOBAL__sub_I_326.cpp() #0 section ".text.startup" {
  call void @__cxx_global_var_init()
  ret void
}


!llvm.module.flags = !{!0}
!llvm.ident = !{!1}

!0 = !{i32 1, !"wchar_size", i32 4}
!1 = !{!"clang version 10.0.0-4ubuntu1 "}
